target datalayout = "e-m:e-p270:32:32-p271:32:32-p272:64:64-i64:64-i128:128-f80:128-n8:16:32:64-S128"
target triple = "x86_64-pc-linux-gnu"

%"class.std::__cxx11::basic_string" = type { %"struct.std::__cxx11::basic_string<char>::_Alloc_hider", i64, %union.anon }
%"struct.std::__cxx11::basic_string<char>::_Alloc_hider" = type { ptr }
%union.anon = type { i64, [8 x i8] }
%"struct.vcpkg::StringView" = type { ptr, i64 }
%"class.fmt::v10::basic_string_view" = type { ptr, i64 }
%"class.fmt::v10::basic_format_args" = type { i64, %union.anon.3 }
%union.anon.3 = type { ptr }
%"struct.fmt::v10::detail::arg_data" = type { [1 x %"class.fmt::v10::detail::value"] }
%"class.fmt::v10::detail::value" = type { %union.anon.162 }
%union.anon.162 = type { i128 }
%"struct.vcpkg::StringLiteral" = type { %"struct.vcpkg::ZStringView" }
%"struct.vcpkg::ZStringView" = type { %"struct.vcpkg::StringView" }
%"struct.vcpkg::Optional" = type { %"struct.vcpkg::details::OptionalStorage" }
%"struct.vcpkg::details::OptionalStorage" = type { i8, %union.anon.145 }
%union.anon.145 = type { %"class.std::__cxx11::basic_string" }
%"struct.vcpkg::Optional.150" = type { %"struct.vcpkg::details::OptionalStorage.151" }
%"struct.vcpkg::details::OptionalStorage.151" = type { i8, %union.anon.152 }
%union.anon.152 = type { %"struct.vcpkg::StringLiteral" }
%"struct.std::pair" = type { i32, %"struct.vcpkg::StringLiteral" }
%class.anon.153 = type { i8 }
%"struct.fmt::v10::detail::arg_mapper" = type { i8 }
%"struct.fmt::v10::detail::custom_value" = type { ptr, ptr }
%"class.fmt::v10::basic_format_string.178" = type { %"class.fmt::v10::basic_string_view" }
%"class.fmt::v10::format_arg_store.179" = type { %"struct.fmt::v10::detail::arg_data" }

@.str.2698 = private unnamed_addr constant [25 x i8] c"locales/messages.{}.json\00", align 1

; Function Attrs: mustprogress nounwind uwtable
define linkonce_odr dso_local void @_ZN5vcpkg7details15OptionalStorageINSt7__cxx1112basic_stringIcSt11char_traitsIcESaIcEEELb1EEC2Ev(ptr noundef nonnull align 8 dereferenceable(40) %0) unnamed_addr #0 comdat align 2 {
  %2 = alloca ptr, align 8
  store ptr %0, ptr %2, align 8
  %3 = load ptr, ptr %2, align 8
  %4 = getelementptr inbounds %"struct.vcpkg::details::OptionalStorage", ptr %3, i32 0, i32 0
  store i8 0, ptr %4, align 8
  %5 = getelementptr inbounds %"struct.vcpkg::details::OptionalStorage", ptr %3, i32 0, i32 1
  store i8 0, ptr %5, align 8
  ret void
}

; Function Attrs: mustprogress nounwind uwtable
define linkonce_odr dso_local void @_ZN5vcpkg7details15OptionalStorageINSt7__cxx1112basic_stringIcSt11char_traitsIcESaIcEEELb1EEC2EOS7_(ptr noundef nonnull align 8 dereferenceable(40) %0, ptr noundef nonnull align 8 dereferenceable(32) %1) unnamed_addr #0 comdat align 2 {
  %3 = alloca ptr, align 8
  %4 = alloca ptr, align 8
  store ptr %0, ptr %3, align 8
  store ptr %1, ptr %4, align 8
  %5 = load ptr, ptr %3, align 8
  %6 = getelementptr inbounds %"struct.vcpkg::details::OptionalStorage", ptr %5, i32 0, i32 0
  store i8 1, ptr %6, align 8
  %7 = getelementptr inbounds %"struct.vcpkg::details::OptionalStorage", ptr %5, i32 0, i32 1
  %8 = load ptr, ptr %4, align 8
  call void @_ZNSt7__cxx1112basic_stringIcSt11char_traitsIcESaIcEEC1EOS4_(ptr noundef nonnull align 8 dereferenceable(32) %7, ptr noundef nonnull align 8 dereferenceable(32) %8) #8
  ret void
}

; Function Attrs: mustprogress uwtable
define linkonce_odr dso_local { i64, i64 } @_ZN3fmt3v1016make_format_argsINS0_20basic_format_contextINS0_8appenderEcEEJN5vcpkg13StringLiteralEEEENS0_16format_arg_storeIT_JDpNSt9remove_cvINSt16remove_referenceIT0_E4typeEE4typeEEEEDpRSB_(ptr noundef nonnull align 8 dereferenceable(16) %0) #2 comdat {
  %2 = alloca ptr, align 8
  %3 = alloca ptr, align 8
  %4 = alloca ptr, align 8
  %5 = alloca ptr, align 8
  %6 = alloca ptr, align 8
  %7 = alloca ptr, align 8
  %8 = alloca %"class.fmt::v10::detail::value", align 16
  %9 = alloca ptr, align 8
  %10 = alloca i8, align 1
  %11 = alloca i8, align 1
  %12 = alloca i8, align 1
  %13 = alloca %"struct.fmt::v10::detail::arg_mapper", align 1
  %14 = alloca ptr, align 8
  %15 = alloca ptr, align 8
  %16 = alloca ptr, align 8
  %17 = alloca ptr, align 8
  %18 = alloca %"class.fmt::v10::detail::value", align 16
  %19 = alloca %"class.fmt::v10::format_arg_store.179", align 16
  %20 = alloca ptr, align 8
  store ptr %0, ptr %20, align 8
  %21 = load ptr, ptr %20, align 8
  store ptr %19, ptr %16, align 8
  store ptr %21, ptr %17, align 8
  %22 = load ptr, ptr %16, align 8
  %23 = load ptr, ptr %17, align 8
  store ptr %23, ptr %9, align 8
  store i8 1, ptr %10, align 1
  store i8 1, ptr %11, align 1
  store i8 1, ptr %12, align 1
  %24 = load ptr, ptr %9, align 8
  store ptr %13, ptr %6, align 8
  store ptr %24, ptr %7, align 8
  %25 = load ptr, ptr %6, align 8
  %26 = load ptr, ptr %7, align 8
  store ptr %25, ptr %2, align 8
  store ptr %26, ptr %3, align 8
  %27 = load ptr, ptr %3, align 8
  store ptr %8, ptr %4, align 8
  store ptr %27, ptr %5, align 8
  %28 = load ptr, ptr %4, align 8
  %29 = load ptr, ptr %5, align 8
  store ptr %29, ptr %28, align 16
  %30 = getelementptr inbounds %"struct.fmt::v10::detail::custom_value", ptr %28, i32 0, i32 1
  store ptr @_ZN3fmt3v106detail5valueINS0_20basic_format_contextINS0_8appenderEcEEE17format_custom_argIN5vcpkg13StringLiteralENS0_9formatterIS9_cvEEEEvPvRNS0_26basic_format_parse_contextIcEERS5_, ptr %30, align 8
  %31 = load { i64, i64 }, ptr %8, align 16
  %32 = extractvalue { i64, i64 } %31, 0
  store i64 %32, ptr %18, align 16
  %33 = getelementptr inbounds { i64, i64 }, ptr %18, i32 0, i32 1
  %34 = extractvalue { i64, i64 } %31, 1
  store i64 %34, ptr %33, align 8
  store ptr %22, ptr %14, align 8
  store ptr %18, ptr %15, align 8
  %35 = load ptr, ptr %14, align 8
  %36 = load ptr, ptr %15, align 8
  call void @llvm.memcpy.p0.p0.i64(ptr align 16 %35, ptr align 16 %36, i64 16, i1 false)
  %37 = getelementptr inbounds %"class.fmt::v10::format_arg_store.179", ptr %19, i32 0, i32 0
  %38 = getelementptr inbounds %"struct.fmt::v10::detail::arg_data", ptr %37, i32 0, i32 0
  %39 = load { i64, i64 }, ptr %38, align 16
  ret { i64, i64 } %39
}

; Function Attrs: mustprogress nounwind uwtable
define linkonce_odr dso_local noundef i64 @_ZNSt11char_traitsIcE6lengthEPKc(ptr noundef %0) #0 comdat align 2 {
  %2 = alloca ptr, align 8
  store ptr %0, ptr %2, align 8
  %3 = load ptr, ptr %2, align 8
  %4 = call i64 @strlen(ptr noundef %3) #8
  ret i64 %4
}

; Function Attrs: mustprogress nounwind uwtable
define linkonce_odr dso_local void @_ZN5vcpkg7details15OptionalStorageINS_13StringLiteralELb1EEC2Ev(ptr noundef nonnull align 8 dereferenceable(24) %0) unnamed_addr #0 comdat align 2 {
  %2 = alloca ptr, align 8
  store ptr %0, ptr %2, align 8
  %3 = load ptr, ptr %2, align 8
  %4 = getelementptr inbounds %"struct.vcpkg::details::OptionalStorage.151", ptr %3, i32 0, i32 0
  store i8 0, ptr %4, align 8
  %5 = getelementptr inbounds %"struct.vcpkg::details::OptionalStorage.151", ptr %3, i32 0, i32 1
  store i8 0, ptr %5, align 8
  ret void
}

; Function Attrs: mustprogress nounwind uwtable
define linkonce_odr dso_local void @_ZN5vcpkg7details15OptionalStorageINS_13StringLiteralELb1EEC2ERKS2_(ptr noundef nonnull align 8 dereferenceable(24) %0, ptr noundef nonnull align 8 dereferenceable(16) %1) unnamed_addr #0 comdat align 2 {
  %3 = alloca ptr, align 8
  %4 = alloca ptr, align 8
  store ptr %0, ptr %3, align 8
  store ptr %1, ptr %4, align 8
  %5 = load ptr, ptr %3, align 8
  %6 = getelementptr inbounds %"struct.vcpkg::details::OptionalStorage.151", ptr %5, i32 0, i32 0
  store i8 1, ptr %6, align 8
  %7 = getelementptr inbounds %"struct.vcpkg::details::OptionalStorage.151", ptr %5, i32 0, i32 1
  %8 = load ptr, ptr %4, align 8
  call void @llvm.memcpy.p0.p0.i64(ptr align 8 %7, ptr align 8 %8, i64 16, i1 false)
  ret void
}

; Function Attrs: mustprogress nounwind uwtable
define linkonce_odr dso_local void @_ZN5vcpkg7details15OptionalStorageINS_13StringLiteralELb1EED2Ev(ptr noundef nonnull align 8 dereferenceable(24) %0) unnamed_addr #0 comdat align 2 {
  %2 = alloca ptr, align 8
  store ptr %0, ptr %2, align 8
  %3 = load ptr, ptr %2, align 8
  %4 = getelementptr inbounds %"struct.vcpkg::details::OptionalStorage.151", ptr %3, i32 0, i32 0
  %5 = load i8, ptr %4, align 8
  %6 = trunc i8 %5 to i1
  br i1 %6, label %7, label %8

7:                                                ; preds = %1
  br label %8

8:                                                ; preds = %7, %1
  ret void
}

; Function Attrs: mustprogress nounwind uwtable
define linkonce_odr dso_local void @_ZN5vcpkg8OptionalINSt7__cxx1112basic_stringIcSt11char_traitsIcESaIcEEEEC2ENS_7NullOptE(ptr noundef nonnull align 8 dereferenceable(40) %0) unnamed_addr #0 comdat align 2 {
  %2 = alloca ptr, align 8
  store ptr %0, ptr %2, align 8
  %3 = load ptr, ptr %2, align 8
  call void @_ZN5vcpkg7details15OptionalStorageINSt7__cxx1112basic_stringIcSt11char_traitsIcESaIcEEELb1EEC2Ev(ptr noundef nonnull align 8 dereferenceable(40) %3) #8
  ret void
}

; Function Attrs: mustprogress nounwind uwtable
define linkonce_odr dso_local void @_ZN5vcpkg8OptionalINSt7__cxx1112basic_stringIcSt11char_traitsIcESaIcEEEEC2IS6_TnNSt9enable_ifIXaantsr3stdE9is_same_vINSt5decayIT_E4typeES7_Esr3stdE18is_constructible_vINS_7details15OptionalStorageIS6_Lb1EEESB_EEiE4typeELi0EEEOSB_(ptr noundef nonnull align 8 dereferenceable(40) %0, ptr noundef nonnull align 8 dereferenceable(32) %1) unnamed_addr #0 comdat align 2 {
  %3 = alloca ptr, align 8
  %4 = alloca ptr, align 8
  store ptr %0, ptr %3, align 8
  store ptr %1, ptr %4, align 8
  %5 = load ptr, ptr %3, align 8
  %6 = load ptr, ptr %4, align 8
  call void @_ZN5vcpkg7details15OptionalStorageINSt7__cxx1112basic_stringIcSt11char_traitsIcESaIcEEELb1EEC2EOS7_(ptr noundef nonnull align 8 dereferenceable(40) %5, ptr noundef nonnull align 8 dereferenceable(32) %6) #8
  ret void
}

; Function Attrs: mustprogress uwtable
define internal void @"_ZZN5vcpkg3msg15get_locale_pathB5cxx11EiENK3$_0clB5cxx11ENS_13StringLiteralE"(ptr dead_on_unwind noalias writable sret(%"class.std::__cxx11::basic_string") align 8 %0, ptr noundef nonnull align 1 dereferenceable(1) %1, ptr %2, i64 %3) #2 align 2 {
  %5 = alloca ptr, align 8
  %6 = alloca ptr, align 8
  %7 = alloca i64, align 8
  %8 = alloca ptr, align 8
  %9 = alloca ptr, align 8
  %10 = alloca ptr, align 8
  %11 = alloca ptr, align 8
  %12 = alloca %"class.fmt::v10::basic_string_view", align 8
  %13 = alloca ptr, align 8
  %14 = alloca ptr, align 8
  %15 = alloca ptr, align 8
  %16 = alloca ptr, align 8
  %17 = alloca ptr, align 8
  %18 = alloca ptr, align 8
  %19 = alloca %"class.fmt::v10::basic_format_string.178", align 8
  %20 = alloca ptr, align 8
  %21 = alloca %"class.fmt::v10::basic_string_view", align 8
  %22 = alloca %"class.fmt::v10::basic_format_args", align 8
  %23 = alloca %"class.fmt::v10::format_arg_store.179", align 16
  %24 = alloca ptr, align 8
  %25 = alloca %"struct.vcpkg::StringLiteral", align 8
  %26 = alloca ptr, align 8
  %27 = alloca %"class.fmt::v10::basic_format_string.178", align 8
  store ptr %0, ptr %24, align 8
  %28 = getelementptr inbounds { ptr, i64 }, ptr %25, i32 0, i32 0
  store ptr %2, ptr %28, align 8
  %29 = getelementptr inbounds { ptr, i64 }, ptr %25, i32 0, i32 1
  store i64 %3, ptr %29, align 8
  store ptr %1, ptr %26, align 8
  store ptr %27, ptr %16, align 8
  store ptr @.str.2698, ptr %17, align 8
  %30 = load ptr, ptr %16, align 8
  %31 = load ptr, ptr %17, align 8
  store ptr %30, ptr %14, align 8
  store ptr %31, ptr %15, align 8
  %32 = load ptr, ptr %14, align 8
  %33 = load ptr, ptr %15, align 8
  store ptr %33, ptr %32, align 8
  %34 = getelementptr inbounds %"class.fmt::v10::basic_string_view", ptr %32, i32 0, i32 1
  %35 = load ptr, ptr %15, align 8
  %36 = call noundef i64 @_ZNSt11char_traitsIcE6lengthEPKc(ptr noundef %35)
  store i64 %36, ptr %34, align 8
  %37 = load ptr, ptr %17, align 8
  store ptr %37, ptr %5, align 8
  %38 = getelementptr inbounds { ptr, i64 }, ptr %27, i32 0, i32 0
  %39 = load ptr, ptr %38, align 8
  %40 = getelementptr inbounds { ptr, i64 }, ptr %27, i32 0, i32 1
  %41 = load i64, ptr %40, align 8
  call void @llvm.experimental.noalias.scope.decl(metadata !54)
  store ptr %0, ptr %18, align 8, !noalias !54
  store ptr %39, ptr %19, align 8, !noalias !54
  %42 = getelementptr inbounds { ptr, i64 }, ptr %19, i32 0, i32 1
  store i64 %41, ptr %42, align 8, !noalias !54
  store ptr %25, ptr %20, align 8, !noalias !54
  store ptr %19, ptr %13, align 8
  %43 = load ptr, ptr %13, align 8
  call void @llvm.memcpy.p0.p0.i64(ptr align 8 %12, ptr align 8 %43, i64 16, i1 false)
  %44 = load { ptr, i64 }, ptr %12, align 8
  %45 = extractvalue { ptr, i64 } %44, 0
  store ptr %45, ptr %21, align 8, !noalias !54
  %46 = getelementptr inbounds { ptr, i64 }, ptr %21, i32 0, i32 1
  %47 = extractvalue { ptr, i64 } %44, 1
  store i64 %47, ptr %46, align 8, !noalias !54
  %48 = load ptr, ptr %20, align 8, !noalias !54
  %49 = call { i64, i64 } @_ZN3fmt3v1016make_format_argsINS0_20basic_format_contextINS0_8appenderEcEEJN5vcpkg13StringLiteralEEEENS0_16format_arg_storeIT_JDpNSt9remove_cvINSt16remove_referenceIT0_E4typeEE4typeEEEEDpRSB_(ptr noundef nonnull align 8 dereferenceable(16) %48)
  %50 = extractvalue { i64, i64 } %49, 0
  store i64 %50, ptr %23, align 16, !noalias !54
  %51 = getelementptr inbounds { i64, i64 }, ptr %23, i32 0, i32 1
  %52 = extractvalue { i64, i64 } %49, 1
  store i64 %52, ptr %51, align 8, !noalias !54
  store ptr %22, ptr %10, align 8
  store ptr %23, ptr %11, align 8
  %53 = load ptr, ptr %10, align 8
  %54 = load ptr, ptr %11, align 8
  store ptr %54, ptr %9, align 8
  %55 = load ptr, ptr %9, align 8
  store ptr %53, ptr %6, align 8
  store i64 15, ptr %7, align 8
  store ptr %55, ptr %8, align 8
  %56 = load ptr, ptr %6, align 8
  %57 = load i64, ptr %7, align 8
  store i64 %57, ptr %56, align 8
  %58 = getelementptr inbounds %"class.fmt::v10::basic_format_args", ptr %56, i32 0, i32 1
  %59 = load ptr, ptr %8, align 8
  store ptr %59, ptr %58, align 8
  %60 = load ptr, ptr %21, align 8, !noalias !54
  %61 = getelementptr inbounds { ptr, i64 }, ptr %21, i32 0, i32 1
  %62 = load i64, ptr %61, align 8, !noalias !54
  %63 = load i64, ptr %22, align 8, !noalias !54
  %64 = getelementptr inbounds { i64, ptr }, ptr %22, i32 0, i32 1
  %65 = load ptr, ptr %64, align 8, !noalias !54
  call void @_ZN3fmt3v107vformatB5cxx11ENS0_17basic_string_viewIcEENS0_17basic_format_argsINS0_20basic_format_contextINS0_8appenderEcEEEE(ptr dead_on_unwind writable sret(%"class.std::__cxx11::basic_string") align 8 %0, ptr %60, i64 %62, i64 %63, ptr %65)
  ret void
}

; Function Attrs: mustprogress nounwind uwtable
define linkonce_odr dso_local noundef nonnull align 8 dereferenceable(16) ptr @_ZN5vcpkg7details15OptionalStorageINS_13StringLiteralELb1EE5valueEv(ptr noundef nonnull align 8 dereferenceable(24) %0) #0 comdat align 2 {
  %2 = alloca ptr, align 8
  store ptr %0, ptr %2, align 8
  %3 = load ptr, ptr %2, align 8
  %4 = getelementptr inbounds %"struct.vcpkg::details::OptionalStorage.151", ptr %3, i32 0, i32 1
  ret ptr %4
}

; Function Attrs: mustprogress nounwind uwtable
define linkonce_odr dso_local noundef zeroext i1 @_ZNK5vcpkg7details15OptionalStorageINS_13StringLiteralELb1EE9has_valueEv(ptr noundef nonnull align 8 dereferenceable(24) %0) #0 comdat align 2 {
  %2 = alloca ptr, align 8
  store ptr %0, ptr %2, align 8
  %3 = load ptr, ptr %2, align 8
  %4 = getelementptr inbounds %"struct.vcpkg::details::OptionalStorage.151", ptr %3, i32 0, i32 0
  %5 = load i8, ptr %4, align 8
  %6 = trunc i8 %5 to i1
  ret i1 %6
}

; Function Attrs: mustprogress nounwind uwtable
define linkonce_odr dso_local void @_ZN5vcpkg8OptionalINS_13StringLiteralEEC2ENS_7NullOptE(ptr noundef nonnull align 8 dereferenceable(24) %0) unnamed_addr #0 comdat align 2 {
  %2 = alloca ptr, align 8
  store ptr %0, ptr %2, align 8
  %3 = load ptr, ptr %2, align 8
  call void @_ZN5vcpkg7details15OptionalStorageINS_13StringLiteralELb1EEC2Ev(ptr noundef nonnull align 8 dereferenceable(24) %3) #8
  ret void
}

; Function Attrs: mustprogress nounwind uwtable
define linkonce_odr dso_local void @_ZN5vcpkg8OptionalINS_13StringLiteralEEC2IRKS1_TnNSt9enable_ifIXaantsr3stdE9is_same_vINSt5decayIT_E4typeES2_Esr3stdE18is_constructible_vINS_7details15OptionalStorageIS1_Lb1EEES8_EEiE4typeELi0EEEOS8_(ptr noundef nonnull align 8 dereferenceable(24) %0, ptr noundef nonnull align 8 dereferenceable(16) %1) unnamed_addr #0 comdat align 2 {
  %3 = alloca ptr, align 8
  %4 = alloca ptr, align 8
  store ptr %0, ptr %3, align 8
  store ptr %1, ptr %4, align 8
  %5 = load ptr, ptr %3, align 8
  %6 = load ptr, ptr %4, align 8
  call void @_ZN5vcpkg7details15OptionalStorageINS_13StringLiteralELb1EEC2ERKS2_(ptr noundef nonnull align 8 dereferenceable(24) %5, ptr noundef nonnull align 8 dereferenceable(16) %6) #8
  ret void
}

; Function Attrs: mustprogress nounwind uwtable
define linkonce_odr dso_local void @_ZN5vcpkg8OptionalINS_13StringLiteralEED2Ev(ptr noundef nonnull align 8 dereferenceable(24) %0) unnamed_addr #0 comdat align 2 {
  %2 = alloca ptr, align 8
  store ptr %0, ptr %2, align 8
  %3 = load ptr, ptr %2, align 8
  call void @_ZN5vcpkg7details15OptionalStorageINS_13StringLiteralELb1EED2Ev(ptr noundef nonnull align 8 dereferenceable(24) %3) #8
  ret void
}

; Function Attrs: mustprogress uwtable
define internal void @"_ZNO5vcpkg8OptionalINS_13StringLiteralEE3mapIZNS_3msg15get_locale_pathB5cxx11EiE3$_0EENS0_IDTclclsr3stdE7declvalIRT_EEclL_ZSt7declvalIOS1_EDTcl9__declvalIS6_ELi0EEEvEEEEEES6_"(ptr dead_on_unwind noalias writable sret(%"struct.vcpkg::Optional") align 8 %0, ptr noundef nonnull align 8 dereferenceable(24) %1) #2 align 2 {
  %3 = alloca ptr, align 8
  %4 = alloca %class.anon.153, align 1
  %5 = alloca ptr, align 8
  %6 = alloca %"class.std::__cxx11::basic_string", align 8
  %7 = alloca %"struct.vcpkg::StringLiteral", align 8
  store ptr %0, ptr %3, align 8
  store ptr %1, ptr %5, align 8
  %8 = load ptr, ptr %5, align 8
  %9 = call noundef zeroext i1 @_ZNK5vcpkg7details15OptionalStorageINS_13StringLiteralELb1EE9has_valueEv(ptr noundef nonnull align 8 dereferenceable(24) %8) #8
  br i1 %9, label %10, label %16

10:                                               ; preds = %2
  %11 = call noundef nonnull align 8 dereferenceable(16) ptr @_ZN5vcpkg7details15OptionalStorageINS_13StringLiteralELb1EE5valueEv(ptr noundef nonnull align 8 dereferenceable(24) %8) #8
  call void @llvm.memcpy.p0.p0.i64(ptr align 8 %7, ptr align 8 %11, i64 16, i1 false)
  %12 = getelementptr inbounds { ptr, i64 }, ptr %7, i32 0, i32 0
  %13 = load ptr, ptr %12, align 8
  %14 = getelementptr inbounds { ptr, i64 }, ptr %7, i32 0, i32 1
  %15 = load i64, ptr %14, align 8
  call void @"_ZZN5vcpkg3msg15get_locale_pathB5cxx11EiENK3$_0clB5cxx11ENS_13StringLiteralE"(ptr dead_on_unwind writable sret(%"class.std::__cxx11::basic_string") align 8 %6, ptr noundef nonnull align 1 dereferenceable(1) %4, ptr %13, i64 %15)
  call void @_ZN5vcpkg8OptionalINSt7__cxx1112basic_stringIcSt11char_traitsIcESaIcEEEEC2IS6_TnNSt9enable_ifIXaantsr3stdE9is_same_vINSt5decayIT_E4typeES7_Esr3stdE18is_constructible_vINS_7details15OptionalStorageIS6_Lb1EEESB_EEiE4typeELi0EEEOSB_(ptr noundef nonnull align 8 dereferenceable(40) %0, ptr noundef nonnull align 8 dereferenceable(32) %6) #8
  call void @_ZNSt7__cxx1112basic_stringIcSt11char_traitsIcESaIcEED1Ev(ptr noundef nonnull align 8 dereferenceable(32) %6) #8
  br label %17

16:                                               ; preds = %2
  call void @_ZN5vcpkg8OptionalINSt7__cxx1112basic_stringIcSt11char_traitsIcESaIcEEEEC2ENS_7NullOptE(ptr noundef nonnull align 8 dereferenceable(40) %0) #8
  br label %17

17:                                               ; preds = %16, %10
  ret void
}

; Function Attrs: mustprogress nounwind uwtable
define dso_local void @_ZN5vcpkg3msg16get_language_tagEi(ptr dead_on_unwind noalias writable sret(%"struct.vcpkg::Optional.150") align 8 %0, i32 noundef %1) #0 {
  %3 = alloca ptr, align 8
  %4 = alloca i32, align 4
  %5 = alloca ptr, align 8
  %6 = alloca ptr, align 8
  %7 = alloca ptr, align 8
  %8 = alloca ptr, align 8
  store ptr %0, ptr %3, align 8
  store i32 %1, ptr %4, align 4
  store ptr @_ZZN5vcpkg3msg16get_language_tagEiE9languages, ptr %5, align 8
  store ptr @_ZZN5vcpkg3msg16get_language_tagEiE9languages, ptr %6, align 8
  store ptr getelementptr inbounds (%"struct.std::pair", ptr @_ZZN5vcpkg3msg16get_language_tagEiE9languages, i64 13), ptr %7, align 8
  br label %9

9:                                                ; preds = %24, %2
  %10 = load ptr, ptr %6, align 8
  %11 = load ptr, ptr %7, align 8
  %12 = icmp ne ptr %10, %11
  br i1 %12, label %13, label %27

13:                                               ; preds = %9
  %14 = load ptr, ptr %6, align 8
  store ptr %14, ptr %8, align 8
  %15 = load ptr, ptr %8, align 8
  %16 = getelementptr inbounds %"struct.std::pair", ptr %15, i32 0, i32 0
  %17 = load i32, ptr %16, align 8
  %18 = load i32, ptr %4, align 4
  %19 = icmp eq i32 %17, %18
  br i1 %19, label %20, label %23

20:                                               ; preds = %13
  %21 = load ptr, ptr %8, align 8
  %22 = getelementptr inbounds %"struct.std::pair", ptr %21, i32 0, i32 1
  call void @_ZN5vcpkg8OptionalINS_13StringLiteralEEC2IRKS1_TnNSt9enable_ifIXaantsr3stdE9is_same_vINSt5decayIT_E4typeES2_Esr3stdE18is_constructible_vINS_7details15OptionalStorageIS1_Lb1EEES8_EEiE4typeELi0EEEOS8_(ptr noundef nonnull align 8 dereferenceable(24) %0, ptr noundef nonnull align 8 dereferenceable(16) %22) #8
  br label %28

23:                                               ; preds = %13
  br label %24

24:                                               ; preds = %23
  %25 = load ptr, ptr %6, align 8
  %26 = getelementptr inbounds %"struct.std::pair", ptr %25, i32 1
  store ptr %26, ptr %6, align 8
  br label %9

27:                                               ; preds = %9
  call void @_ZN5vcpkg8OptionalINS_13StringLiteralEEC2ENS_7NullOptE(ptr noundef nonnull align 8 dereferenceable(24) %0) #8
  br label %28

28:                                               ; preds = %27, %20
  ret void
}

; Function Attrs: mustprogress uwtable
define dso_local void @_ZN5vcpkg3msg15get_locale_pathB5cxx11Ei(ptr dead_on_unwind noalias writable sret(%"struct.vcpkg::Optional") align 8 %0, i32 noundef %1) #2 personality ptr @__gxx_personality_v0 {
  %3 = alloca ptr, align 8
  %4 = alloca i32, align 4
  %5 = alloca %"struct.vcpkg::Optional.150", align 8
  %6 = alloca ptr, align 8
  %7 = alloca i32, align 4
  store ptr %0, ptr %3, align 8
  store i32 %1, ptr %4, align 4
  %8 = load i32, ptr %4, align 4
  call void @_ZN5vcpkg3msg16get_language_tagEi(ptr dead_on_unwind writable sret(%"struct.vcpkg::Optional.150") align 8 %5, i32 noundef %8)
  invoke void @"_ZNO5vcpkg8OptionalINS_13StringLiteralEE3mapIZNS_3msg15get_locale_pathB5cxx11EiE3$_0EENS0_IDTclclsr3stdE7declvalIRT_EEclL_ZSt7declvalIOS1_EDTcl9__declvalIS6_ELi0EEEvEEEEEES6_"(ptr dead_on_unwind writable sret(%"struct.vcpkg::Optional") align 8 %0, ptr noundef nonnull align 8 dereferenceable(24) %5)
          to label %9 unwind label %10

9:                                                ; preds = %2
  call void @_ZN5vcpkg8OptionalINS_13StringLiteralEED2Ev(ptr noundef nonnull align 8 dereferenceable(24) %5) #8
  ret void

10:                                               ; preds = %2
  %11 = landingpad { ptr, i32 }
          cleanup
  %12 = extractvalue { ptr, i32 } %11, 0
  store ptr %12, ptr %6, align 8
  %13 = extractvalue { ptr, i32 } %11, 1
  store i32 %13, ptr %7, align 4
  call void @_ZN5vcpkg8OptionalINS_13StringLiteralEED2Ev(ptr noundef nonnull align 8 dereferenceable(24) %5) #8
  br label %14

14:                                               ; preds = %10
  %15 = load ptr, ptr %6, align 8
  %16 = load i32, ptr %7, align 4
  %17 = insertvalue { ptr, i32 } poison, ptr %15, 0
  %18 = insertvalue { ptr, i32 } %17, i32 %16, 1
  resume { ptr, i32 } %18
}