; Function Attrs: mustprogress uwtable
define dso_local void @_ZN5vcpkg3msg15get_locale_pathB5cxx11Ei(ptr dead_on_unwind noalias writable sret(%"struct.vcpkg::Optional") align 8 %0, i32 noundef %1) local_unnamed_addr #3 personality ptr @__gxx_personality_v0 {
  %3 = alloca %"class.fmt::v10::format_arg_store.179", align 16
  %4 = alloca %"struct.vcpkg::StringLiteral", align 8
  %5 = alloca %"class.std::__cxx11::basic_string", align 8
  br label %7

6:                                                ; preds = %7
  %.0.add.i = add nuw nsw i64 %.0.idx7.i, 24
  %.not.i = icmp eq i64 %.0.add.i, 312
  br i1 %.not.i, label %15, label %7

7:                                                ; preds = %6, %2
  %.0.idx7.i = phi i64 [ 0, %2 ], [ %.0.add.i, %6 ]
  %.0.ptr8.i = getelementptr inbounds i8, ptr @_ZZN5vcpkg3msg16get_language_tagEiE9languages, i64 %.0.idx7.i
  %8 = load i32, ptr %.0.ptr8.i, align 8, !noalias !76
  %9 = icmp eq i32 %8, %1
  br i1 %9, label %.noexc, label %6

.noexc:                                           ; preds = %7
  %.0.ptr8.i.le = getelementptr inbounds i8, ptr @_ZZN5vcpkg3msg16get_language_tagEiE9languages, i64 %.0.idx7.i
  %10 = getelementptr inbounds i8, ptr %.0.ptr8.i.le, i64 8
  %.sroa.3.8.copyload = load ptr, ptr %10, align 8
  %.sroa.6.8..sroa_idx = getelementptr inbounds i8, ptr %.0.ptr8.i.le, i64 16
  %.sroa.6.8.copyload = load i64, ptr %.sroa.6.8..sroa_idx, align 8
  tail call void @llvm.experimental.noalias.scope.decl(metadata !79)
  call void @llvm.lifetime.start.p0(i64 32, ptr nonnull %5)
  call void @llvm.lifetime.start.p0(i64 16, ptr nonnull %3), !noalias !79
  call void @llvm.lifetime.start.p0(i64 16, ptr nonnull %4), !noalias !79
  store ptr %.sroa.3.8.copyload, ptr %4, align 8, !noalias !82
  %11 = getelementptr inbounds i8, ptr %4, i64 8
  store i64 %.sroa.6.8.copyload, ptr %11, align 8, !noalias !82
  %12 = ptrtoint ptr %4 to i64
  store i64 %12, ptr %3, align 16, !noalias !85
  %13 = getelementptr inbounds i8, ptr %3, i64 8
  store i64 ptrtoint (ptr @_ZN3fmt3v106detail5valueINS0_20basic_format_contextINS0_8appenderEcEEE17format_custom_argIN5vcpkg13StringLiteralENS0_9formatterIS9_cvEEEEvPvRNS0_26basic_format_parse_contextIcEERS5_ to i64), ptr %13, align 8, !noalias !85
  call void @_ZN3fmt3v107vformatB5cxx11ENS0_17basic_string_viewIcEENS0_17basic_format_argsINS0_20basic_format_contextINS0_8appenderEcEEEE(ptr dead_on_unwind nonnull writable sret(%"class.std::__cxx11::basic_string") align 8 %5, ptr nonnull @.str.2698, i64 24, i64 15, ptr nonnull %3)
  call void @llvm.lifetime.end.p0(i64 16, ptr nonnull %3), !noalias !79
  call void @llvm.lifetime.end.p0(i64 16, ptr nonnull %4), !noalias !79
  store i8 1, ptr %0, align 8, !alias.scope !79
  %14 = getelementptr inbounds i8, ptr %0, i64 8
  call void @_ZNSt7__cxx1112basic_stringIcSt11char_traitsIcESaIcEEC1EOS4_(ptr noundef nonnull align 8 dereferenceable(32) %14, ptr noundef nonnull align 8 dereferenceable(32) %5) #25
  call void @_ZNSt7__cxx1112basic_stringIcSt11char_traitsIcESaIcEED1Ev(ptr noundef nonnull align 8 dereferenceable(32) %5) #25
  br label %17

15:                                               ; preds = %6
  call void @llvm.lifetime.start.p0(i64 32, ptr nonnull %5)
  store i8 0, ptr %0, align 8, !alias.scope !79
  %16 = getelementptr inbounds i8, ptr %0, i64 8
  store i8 0, ptr %16, align 8, !alias.scope !79
  br label %17

17:                                               ; preds = %15, %.noexc
  call void @llvm.lifetime.end.p0(i64 32, ptr nonnull %5)
  ret void
}